target datalayout = "e-m:e-p270:32:32-p271:32:32-p272:64:64-i64:64-i128:128-f80:128-n8:16:32:64-S128"
target triple = "x86_64-pc-linux-gnu"

%struct._dcerpc_info = type { ptr, i32, i64, i8, i8, i8, i32, i32, i32, i32, i32, i32, i32, i32, ptr, ptr, ptr, ptr, %struct.anon }
%struct.anon = type { i8, ptr, ptr, ptr, i8 }
%struct._dcerpc_call_value = type { %struct._e_guid_t, i16, %struct._e_guid_t, i16, i32, %struct.nstime_t, i32, i32, ptr, ptr, ptr, i32 }
%struct._e_guid_t = type { i32, i16, i16, [8 x i8] }
%struct.nstime_t = type { i64, i32 }

@hf_nt_cs_len = hidden global i32 0, align 4
@hf_nt_cs_size = hidden global i32 0, align 4
@.str.5 = private unnamed_addr constant [16 x i8] c"Character Array\00", align 1

; Function Attrs: null_pointer_is_valid sspstrong uwtable
define hidden i32 @dissect_ndr_counted_string_cb(ptr noundef %0, i32 noundef %1, ptr noundef %2, ptr noundef %3, ptr noundef %4, ptr noundef %5, i32 noundef %6, ptr noundef %7, ptr noundef %8) #0 {
  %10 = alloca i32, align 4
  %11 = alloca ptr, align 8
  %12 = alloca i32, align 4
  %13 = alloca ptr, align 8
  %14 = alloca ptr, align 8
  %15 = alloca ptr, align 8
  %16 = alloca ptr, align 8
  %17 = alloca i32, align 4
  %18 = alloca ptr, align 8
  %19 = alloca ptr, align 8
  %20 = alloca i16, align 2
  %21 = alloca i16, align 2
  %22 = alloca i32, align 4
  store ptr %0, ptr %11, align 8
  store i32 %1, ptr %12, align 4
  store ptr %2, ptr %13, align 8
  store ptr %3, ptr %14, align 8
  store ptr %4, ptr %15, align 8
  store ptr %5, ptr %16, align 8
  store i32 %6, ptr %17, align 4
  store ptr %7, ptr %18, align 8
  store ptr %8, ptr %19, align 8
  call void @llvm.lifetime.start.p0(i64 2, ptr %20) #13
  call void @llvm.lifetime.start.p0(i64 2, ptr %21) #13
  %23 = load ptr, ptr %15, align 8
  %24 = getelementptr inbounds nuw %struct._dcerpc_info, ptr %23, i32 0, i32 14
  %25 = load ptr, ptr %24, align 8
  %26 = getelementptr inbounds nuw %struct._dcerpc_call_value, ptr %25, i32 0, i32 11
  %27 = load i32, ptr %26, align 8
  %28 = and i32 %27, 1
  %29 = icmp ne i32 %28, 0
  br i1 %29, label %30, label %45

30:                                               ; preds = %9
  %31 = load ptr, ptr %15, align 8
  %32 = getelementptr inbounds nuw %struct._dcerpc_info, ptr %31, i32 0, i32 4
  %33 = load i8, ptr %32, align 1, !range !6, !noundef !7
  %34 = trunc i8 %33 to i1
  br i1 %34, label %44, label %35

35:                                               ; preds = %30
  %36 = load i32, ptr %12, align 4
  %37 = and i32 %36, 7
  %38 = icmp ne i32 %37, 0
  br i1 %38, label %39, label %43

39:                                               ; preds = %35
  %40 = load i32, ptr %12, align 4
  %41 = and i32 %40, -8
  %42 = add i32 %41, 8
  store i32 %42, ptr %12, align 4
  br label %43

43:                                               ; preds = %39, %35
  br label %44

44:                                               ; preds = %43, %30
  br label %60

45:                                               ; preds = %9
  %46 = load ptr, ptr %15, align 8
  %47 = getelementptr inbounds nuw %struct._dcerpc_info, ptr %46, i32 0, i32 4
  %48 = load i8, ptr %47, align 1, !range !6, !noundef !7
  %49 = trunc i8 %48 to i1
  br i1 %49, label %59, label %50

50:                                               ; preds = %45
  %51 = load i32, ptr %12, align 4
  %52 = and i32 %51, 3
  %53 = icmp ne i32 %52, 0
  br i1 %53, label %54, label %58

54:                                               ; preds = %50
  %55 = load i32, ptr %12, align 4
  %56 = and i32 %55, -4
  %57 = add i32 %56, 4
  store i32 %57, ptr %12, align 4
  br label %58

58:                                               ; preds = %54, %50
  br label %59

59:                                               ; preds = %58, %45
  br label %60

60:                                               ; preds = %59, %44
  %61 = load ptr, ptr %15, align 8
  %62 = getelementptr inbounds nuw %struct._dcerpc_info, ptr %61, i32 0, i32 4
  %63 = load i8, ptr %62, align 1, !range !6, !noundef !7
  %64 = trunc i8 %63 to i1
  br i1 %64, label %65, label %67

65:                                               ; preds = %60
  %66 = load i32, ptr %12, align 4
  store i32 %66, ptr %10, align 4
  store i32 1, ptr %22, align 4
  br label %142

67:                                               ; preds = %60
  %68 = load ptr, ptr %11, align 8
  %69 = load i32, ptr %12, align 4
  %70 = load ptr, ptr %13, align 8
  %71 = load ptr, ptr %14, align 8
  %72 = load ptr, ptr %15, align 8
  %73 = load ptr, ptr %16, align 8
  %74 = load i32, ptr @hf_nt_cs_len, align 4
  %75 = call i32 @dissect_ndr_uint16(ptr noundef %68, i32 noundef %69, ptr noundef %70, ptr noundef %71, ptr noundef %72, ptr noundef %73, i32 noundef %74, ptr noundef %20)
  store i32 %75, ptr %12, align 4
  %76 = load ptr, ptr %11, align 8
  %77 = load i32, ptr %12, align 4
  %78 = load ptr, ptr %13, align 8
  %79 = load ptr, ptr %14, align 8
  %80 = load ptr, ptr %15, align 8
  %81 = load ptr, ptr %16, align 8
  %82 = load i32, ptr @hf_nt_cs_size, align 4
  %83 = call i32 @dissect_ndr_uint16(ptr noundef %76, i32 noundef %77, ptr noundef %78, ptr noundef %79, ptr noundef %80, ptr noundef %81, i32 noundef %82, ptr noundef %21)
  store i32 %83, ptr %12, align 4
  %84 = load ptr, ptr %11, align 8
  %85 = load i32, ptr %12, align 4
  %86 = load ptr, ptr %13, align 8
  %87 = load ptr, ptr %14, align 8
  %88 = load ptr, ptr %15, align 8
  %89 = load ptr, ptr %16, align 8
  %90 = load i32, ptr %17, align 4
  %91 = load ptr, ptr %18, align 8
  %92 = load ptr, ptr %19, align 8
  %93 = call i32 @dissect_ndr_pointer_cb(ptr noundef %84, i32 noundef %85, ptr noundef %86, ptr noundef %87, ptr noundef %88, ptr noundef %89, ptr noundef @dissect_ndr_wchar_cvstring, i32 noundef 2, ptr noundef @.str.5, i32 noundef %90, ptr noundef %91, ptr noundef %92)
  store i32 %93, ptr %12, align 4
  %94 = load ptr, ptr %15, align 8
  %95 = getelementptr inbounds nuw %struct._dcerpc_info, ptr %94, i32 0, i32 14
  %96 = load ptr, ptr %95, align 8
  %97 = getelementptr inbounds nuw %struct._dcerpc_call_value, ptr %96, i32 0, i32 11
  %98 = load i32, ptr %97, align 8
  %99 = and i32 %98, 1
  %100 = icmp ne i32 %99, 0
  br i1 %100, label %101, label %140

101:                                              ; preds = %67
  %102 = load ptr, ptr %15, align 8
  %103 = getelementptr inbounds nuw %struct._dcerpc_info, ptr %102, i32 0, i32 14
  %104 = load ptr, ptr %103, align 8
  %105 = getelementptr inbounds nuw %struct._dcerpc_call_value, ptr %104, i32 0, i32 11
  %106 = load i32, ptr %105, align 8
  %107 = and i32 %106, 1
  %108 = icmp ne i32 %107, 0
  br i1 %108, label %109, label %124

109:                                              ; preds = %101
  %110 = load ptr, ptr %15, align 8
  %111 = getelementptr inbounds nuw %struct._dcerpc_info, ptr %110, i32 0, i32 4
  %112 = load i8, ptr %111, align 1, !range !6, !noundef !7
  %113 = trunc i8 %112 to i1
  br i1 %113, label %123, label %114

114:                                              ; preds = %109
  %115 = load i32, ptr %12, align 4
  %116 = and i32 %115, 7
  %117 = icmp ne i32 %116, 0
  br i1 %117, label %118, label %122

118:                                              ; preds = %114
  %119 = load i32, ptr %12, align 4
  %120 = and i32 %119, -8
  %121 = add i32 %120, 8
  store i32 %121, ptr %12, align 4
  br label %122

122:                                              ; preds = %118, %114
  br label %123

123:                                              ; preds = %122, %109
  br label %139

124:                                              ; preds = %101
  %125 = load ptr, ptr %15, align 8
  %126 = getelementptr inbounds nuw %struct._dcerpc_info, ptr %125, i32 0, i32 4
  %127 = load i8, ptr %126, align 1, !range !6, !noundef !7
  %128 = trunc i8 %127 to i1
  br i1 %128, label %138, label %129

129:                                              ; preds = %124
  %130 = load i32, ptr %12, align 4
  %131 = and i32 %130, 3
  %132 = icmp ne i32 %131, 0
  br i1 %132, label %133, label %137

133:                                              ; preds = %129
  %134 = load i32, ptr %12, align 4
  %135 = and i32 %134, -4
  %136 = add i32 %135, 4
  store i32 %136, ptr %12, align 4
  br label %137

137:                                              ; preds = %133, %129
  br label %138

138:                                              ; preds = %137, %124
  br label %139

139:                                              ; preds = %138, %123
  br label %140

140:                                              ; preds = %139, %67
  %141 = load i32, ptr %12, align 4
  store i32 %141, ptr %10, align 4
  store i32 1, ptr %22, align 4
  br label %142

142:                                              ; preds = %140, %65
  call void @llvm.lifetime.end.p0(i64 2, ptr %21) #13
  call void @llvm.lifetime.end.p0(i64 2, ptr %20) #13
  %143 = load i32, ptr %10, align 4
  ret i32 %143
}