; Function Attrs: null_pointer_is_valid sspstrong uwtable
define hidden i32 @dissect_ndr_counted_string_cb(ptr noundef %0, i32 noundef %1, ptr noundef %2, ptr noundef %3, ptr noundef %4, ptr noundef %5, i32 noundef %6, ptr noundef %7, ptr noundef %8) local_unnamed_addr #0 {
  %10 = alloca i16, align 2
  %11 = alloca i16, align 2
  call void @llvm.lifetime.start.p0(i64 2, ptr nonnull %10) #9
  call void @llvm.lifetime.start.p0(i64 2, ptr nonnull %11) #9
  %12 = getelementptr inbounds nuw i8, ptr %4, i64 64
  %13 = load ptr, ptr %12, align 8
  %14 = getelementptr inbounds nuw i8, ptr %13, i64 96
  %15 = load i32, ptr %14, align 8
  %16 = and i32 %15, 1
  %.not = icmp eq i32 %16, 0
  %17 = getelementptr inbounds nuw i8, ptr %4, i64 25
  %18 = load i8, ptr %17, align 1, !range !6, !noundef !7
  %19 = trunc nuw i8 %18 to i1
  br i1 %.not, label %22, label %20

20:                                               ; preds = %9
  %21 = and i32 %1, 7
  %.not41 = icmp eq i32 %21, 0
  %or.cond = or i1 %.not41, %19
  br i1 %or.cond, label %26, label %.thread

22:                                               ; preds = %9
  %23 = and i32 %1, 3
  %.not40 = icmp eq i32 %23, 0
  %or.cond44 = or i1 %.not40, %19
  br i1 %or.cond44, label %26, label %.thread

.thread:                                          ; preds = %22, %20
  %.sink49 = phi i32 [ -8, %20 ], [ -4, %22 ]
  %.sink48 = phi i32 [ 8, %20 ], [ 4, %22 ]
  %24 = and i32 %1, %.sink49
  %25 = add i32 %24, %.sink48
  br label %28

26:                                               ; preds = %22, %20
  %27 = trunc nuw i8 %18 to i1
  br i1 %27, label %46, label %28

28:                                               ; preds = %.thread, %26
  %.03947 = phi i32 [ %25, %.thread ], [ %1, %26 ]
  %29 = load i32, ptr @hf_nt_cs_len, align 4
  %30 = call i32 @dissect_ndr_uint16(ptr noundef %0, i32 noundef %.03947, ptr noundef %2, ptr noundef %3, ptr noundef %4, ptr noundef %5, i32 noundef %29, ptr noundef nonnull %10)
  %31 = load i32, ptr @hf_nt_cs_size, align 4
  %32 = call i32 @dissect_ndr_uint16(ptr noundef %0, i32 noundef %30, ptr noundef %2, ptr noundef %3, ptr noundef %4, ptr noundef %5, i32 noundef %31, ptr noundef nonnull %11)
  %33 = call i32 @dissect_ndr_pointer_cb(ptr noundef %0, i32 noundef %32, ptr noundef %2, ptr noundef %3, ptr noundef %4, ptr noundef %5, ptr noundef nonnull @dissect_ndr_wchar_cvstring, i32 noundef 2, ptr noundef nonnull @.str.5, i32 noundef %6, ptr noundef %7, ptr noundef %8)
  %34 = load ptr, ptr %12, align 8
  %35 = getelementptr inbounds nuw i8, ptr %34, i64 96
  %36 = load i32, ptr %35, align 8
  %37 = and i32 %36, 1
  %.not42 = icmp eq i32 %37, 0
  br i1 %.not42, label %46, label %38

38:                                               ; preds = %28
  %39 = getelementptr inbounds nuw i8, ptr %4, i64 25
  %40 = load i8, ptr %39, align 1, !range !6, !noundef !7
  %41 = trunc nuw i8 %40 to i1
  %42 = and i32 %33, 7
  %.not43 = icmp eq i32 %42, 0
  %or.cond45 = select i1 %41, i1 true, i1 %.not43
  br i1 %or.cond45, label %46, label %43

43:                                               ; preds = %38
  %44 = and i32 %33, -8
  %45 = add i32 %44, 8
  br label %46

46:                                               ; preds = %28, %38, %43, %26
  %.0 = phi i32 [ %1, %26 ], [ %33, %38 ], [ %45, %43 ], [ %33, %28 ]
  call void @llvm.lifetime.end.p0(i64 2, ptr nonnull %11) #9
  call void @llvm.lifetime.end.p0(i64 2, ptr nonnull %10) #9
  ret i32 %.0
}